; Function Attrs: nounwind uwtable
define internal fastcc void @replorigin_check_prerequisites(i1 noundef zeroext %0, i1 noundef zeroext %1) unnamed_addr #0 {
  %3 = load i32, ptr @max_replication_slots, align 4
  %4 = icmp eq i32 %3, 0
  %or.cond = select i1 %0, i1 %4, i1 false
  br i1 %or.cond, label %5, label %9

5:                                                ; preds = %2
  %6 = tail call zeroext i1 @errstart_cold(i32 noundef 21, ptr noundef null) #11
  tail call void @llvm.assume(i1 %6)
  %7 = tail call i32 @errcode(i32 noundef 325) #10
  %8 = tail call i32 (ptr, ...) @errmsg(ptr noundef nonnull @.str.32) #10
  tail call void @errfinish(ptr noundef nonnull @.str.1, i32 noundef 194, ptr noundef nonnull @__func__.replorigin_check_prerequisites) #10
  unreachable

9:                                                ; preds = %2
  br i1 %1, label %16, label %10

10:                                               ; preds = %9
  %11 = tail call zeroext i1 @RecoveryInProgress() #10
  br i1 %11, label %12, label %16

12:                                               ; preds = %10
  %13 = tail call zeroext i1 @errstart_cold(i32 noundef 21, ptr noundef null) #11
  tail call void @llvm.assume(i1 %13)
  %14 = tail call i32 @errcode(i32 noundef 100663618) #10
  %15 = tail call i32 (ptr, ...) @errmsg(ptr noundef nonnull @.str.33) #10
  tail call void @errfinish(ptr noundef nonnull @.str.1, i32 noundef 199, ptr noundef nonnull @__func__.replorigin_check_prerequisites) #10
  unreachable

16:                                               ; preds = %10, %9
  ret void
}